target datalayout = "e-m:e-p270:32:32-p271:32:32-p272:64:64-i64:64-i128:128-f80:128-n8:16:32:64-S128"
target triple = "x86_64-pc-linux-gnu"

%class.dtNavMeshQuery = type { ptr, %"struct.dtNavMeshQuery::dtQueryData", ptr, ptr, ptr }
%"struct.dtNavMeshQuery::dtQueryData" = type { i32, ptr, float, i32, i32, [3 x float], [3 x float], ptr, i32, float }

@.str = private unnamed_addr constant [6 x i8] c"m_nav\00", align 1
@.str.1 = private unnamed_addr constant [148 x i8] c"generated/home/dtcxzyw/WorkSpace/Projects/compilers/llvm-opt-benchmark/bench/recastnavigation/recastnavigation/Detour/Source/DetourNavMeshQuery.cpp\00", align 1

; Function Attrs: mustprogress nounwind uwtable
define linkonce_odr noundef zeroext i1 @_ZSt8isfinitef(float noundef %0) #0 comdat {
  %2 = alloca float, align 4
  store float %0, ptr %2, align 4
  %3 = load float, ptr %2, align 4
  %4 = call i1 @llvm.is.fpclass.f32(float %3, i32 504)
  ret i1 %4
}

; Function Attrs: mustprogress uwtable
define linkonce_odr noundef zeroext i1 @_Z14dtMathIsfinitef(float noundef %0) #1 comdat {
  %2 = alloca float, align 4
  store float %0, ptr %2, align 4
  %3 = load float, ptr %2, align 4
  %4 = call noundef zeroext i1 @_ZSt8isfinitef(float noundef %3)
  ret i1 %4
}

; Function Attrs: mustprogress nounwind uwtable
define linkonce_odr void @_Z6dtVaddPfPKfS1_(ptr noundef %0, ptr noundef %1, ptr noundef %2) #0 comdat {
  %4 = alloca ptr, align 8
  %5 = alloca ptr, align 8
  %6 = alloca ptr, align 8
  store ptr %0, ptr %4, align 8
  store ptr %1, ptr %5, align 8
  store ptr %2, ptr %6, align 8
  %7 = load ptr, ptr %5, align 8
  %8 = getelementptr inbounds float, ptr %7, i64 0
  %9 = load float, ptr %8, align 4
  %10 = load ptr, ptr %6, align 8
  %11 = getelementptr inbounds float, ptr %10, i64 0
  %12 = load float, ptr %11, align 4
  %13 = fadd float %9, %12
  %14 = load ptr, ptr %4, align 8
  %15 = getelementptr inbounds float, ptr %14, i64 0
  store float %13, ptr %15, align 4
  %16 = load ptr, ptr %5, align 8
  %17 = getelementptr inbounds float, ptr %16, i64 1
  %18 = load float, ptr %17, align 4
  %19 = load ptr, ptr %6, align 8
  %20 = getelementptr inbounds float, ptr %19, i64 1
  %21 = load float, ptr %20, align 4
  %22 = fadd float %18, %21
  %23 = load ptr, ptr %4, align 8
  %24 = getelementptr inbounds float, ptr %23, i64 1
  store float %22, ptr %24, align 4
  %25 = load ptr, ptr %5, align 8
  %26 = getelementptr inbounds float, ptr %25, i64 2
  %27 = load float, ptr %26, align 4
  %28 = load ptr, ptr %6, align 8
  %29 = getelementptr inbounds float, ptr %28, i64 2
  %30 = load float, ptr %29, align 4
  %31 = fadd float %27, %30
  %32 = load ptr, ptr %4, align 8
  %33 = getelementptr inbounds float, ptr %32, i64 2
  store float %31, ptr %33, align 4
  ret void
}

; Function Attrs: mustprogress nounwind uwtable
define linkonce_odr void @_Z6dtVsubPfPKfS1_(ptr noundef %0, ptr noundef %1, ptr noundef %2) #0 comdat {
  %4 = alloca ptr, align 8
  %5 = alloca ptr, align 8
  %6 = alloca ptr, align 8
  store ptr %0, ptr %4, align 8
  store ptr %1, ptr %5, align 8
  store ptr %2, ptr %6, align 8
  %7 = load ptr, ptr %5, align 8
  %8 = getelementptr inbounds float, ptr %7, i64 0
  %9 = load float, ptr %8, align 4
  %10 = load ptr, ptr %6, align 8
  %11 = getelementptr inbounds float, ptr %10, i64 0
  %12 = load float, ptr %11, align 4
  %13 = fsub float %9, %12
  %14 = load ptr, ptr %4, align 8
  %15 = getelementptr inbounds float, ptr %14, i64 0
  store float %13, ptr %15, align 4
  %16 = load ptr, ptr %5, align 8
  %17 = getelementptr inbounds float, ptr %16, i64 1
  %18 = load float, ptr %17, align 4
  %19 = load ptr, ptr %6, align 8
  %20 = getelementptr inbounds float, ptr %19, i64 1
  %21 = load float, ptr %20, align 4
  %22 = fsub float %18, %21
  %23 = load ptr, ptr %4, align 8
  %24 = getelementptr inbounds float, ptr %23, i64 1
  store float %22, ptr %24, align 4
  %25 = load ptr, ptr %5, align 8
  %26 = getelementptr inbounds float, ptr %25, i64 2
  %27 = load float, ptr %26, align 4
  %28 = load ptr, ptr %6, align 8
  %29 = getelementptr inbounds float, ptr %28, i64 2
  %30 = load float, ptr %29, align 4
  %31 = fsub float %27, %30
  %32 = load ptr, ptr %4, align 8
  %33 = getelementptr inbounds float, ptr %32, i64 2
  store float %31, ptr %33, align 4
  ret void
}

; Function Attrs: mustprogress uwtable
define linkonce_odr noundef zeroext i1 @_Z11dtVisfinitePKf(ptr noundef %0) #1 comdat {
  %2 = alloca ptr, align 8
  %3 = alloca i8, align 1
  store ptr %0, ptr %2, align 8
  %4 = load ptr, ptr %2, align 8
  %5 = getelementptr inbounds float, ptr %4, i64 0
  %6 = load float, ptr %5, align 4
  %7 = call noundef zeroext i1 @_Z14dtMathIsfinitef(float noundef %6)
  br i1 %7, label %8, label %18

8:                                                ; preds = %1
  %9 = load ptr, ptr %2, align 8
  %10 = getelementptr inbounds float, ptr %9, i64 1
  %11 = load float, ptr %10, align 4
  %12 = call noundef zeroext i1 @_Z14dtMathIsfinitef(float noundef %11)
  br i1 %12, label %13, label %18

13:                                               ; preds = %8
  %14 = load ptr, ptr %2, align 8
  %15 = getelementptr inbounds float, ptr %14, i64 2
  %16 = load float, ptr %15, align 4
  %17 = call noundef zeroext i1 @_Z14dtMathIsfinitef(float noundef %16)
  br label %18

18:                                               ; preds = %13, %8, %1
  %19 = phi i1 [ false, %8 ], [ false, %1 ], [ %17, %13 ]
  %20 = zext i1 %19 to i8
  store i8 %20, ptr %3, align 1
  %21 = load i8, ptr %3, align 1
  %22 = trunc i8 %21 to i1
  ret i1 %22
}

; Function Attrs: mustprogress uwtable
define noundef i32 @_ZNK14dtNavMeshQuery13queryPolygonsEPKfS1_PK13dtQueryFilterP11dtPolyQuery(ptr noundef nonnull align 8 dereferenceable(104) %0, ptr noundef %1, ptr noundef %2, ptr noundef %3, ptr noundef %4) #1 align 2 {
  %6 = alloca i32, align 4
  %7 = alloca ptr, align 8
  %8 = alloca ptr, align 8
  %9 = alloca ptr, align 8
  %10 = alloca ptr, align 8
  %11 = alloca ptr, align 8
  %12 = alloca ptr, align 8
  %13 = alloca [3 x float], align 4
  %14 = alloca [3 x float], align 4
  %15 = alloca i32, align 4
  %16 = alloca i32, align 4
  %17 = alloca i32, align 4
  %18 = alloca i32, align 4
  %19 = alloca [32 x ptr], align 16
  %20 = alloca i32, align 4
  %21 = alloca i32, align 4
  %22 = alloca i32, align 4
  %23 = alloca i32, align 4
  store ptr %0, ptr %7, align 8
  store ptr %1, ptr %8, align 8
  store ptr %2, ptr %9, align 8
  store ptr %3, ptr %10, align 8
  store ptr %4, ptr %11, align 8
  %24 = load ptr, ptr %7, align 8
  %25 = call noundef ptr @_Z21dtAssertFailGetCustomv()
  store ptr %25, ptr %12, align 8
  %26 = load ptr, ptr %12, align 8
  %27 = icmp eq ptr %26, null
  br i1 %27, label %28, label %29

28:                                               ; preds = %5
  br label %36

29:                                               ; preds = %5
  %30 = getelementptr inbounds %class.dtNavMeshQuery, ptr %24, i32 0, i32 0
  %31 = load ptr, ptr %30, align 8
  %32 = icmp ne ptr %31, null
  br i1 %32, label %35, label %33

33:                                               ; preds = %29
  %34 = load ptr, ptr %12, align 8
  call void %34(ptr noundef @.str, ptr noundef @.str.1, i32 noundef 926)
  br label %35

35:                                               ; preds = %33, %29
  br label %36

36:                                               ; preds = %35, %28
  %37 = load ptr, ptr %8, align 8
  %38 = icmp ne ptr %37, null
  br i1 %38, label %39, label %54

39:                                               ; preds = %36
  %40 = load ptr, ptr %8, align 8
  %41 = call noundef zeroext i1 @_Z11dtVisfinitePKf(ptr noundef %40)
  br i1 %41, label %42, label %54

42:                                               ; preds = %39
  %43 = load ptr, ptr %9, align 8
  %44 = icmp ne ptr %43, null
  br i1 %44, label %45, label %54

45:                                               ; preds = %42
  %46 = load ptr, ptr %9, align 8
  %47 = call noundef zeroext i1 @_Z11dtVisfinitePKf(ptr noundef %46)
  br i1 %47, label %48, label %54

48:                                               ; preds = %45
  %49 = load ptr, ptr %10, align 8
  %50 = icmp ne ptr %49, null
  br i1 %50, label %51, label %54

51:                                               ; preds = %48
  %52 = load ptr, ptr %11, align 8
  %53 = icmp ne ptr %52, null
  br i1 %53, label %55, label %54

54:                                               ; preds = %51, %48, %45, %42, %39, %36
  store i32 -2147483640, ptr %6, align 4
  br label %111

55:                                               ; preds = %51
  %56 = getelementptr inbounds [3 x float], ptr %13, i64 0, i64 0
  %57 = load ptr, ptr %8, align 8
  %58 = load ptr, ptr %9, align 8
  call void @_Z6dtVsubPfPKfS1_(ptr noundef %56, ptr noundef %57, ptr noundef %58)
  %59 = getelementptr inbounds [3 x float], ptr %14, i64 0, i64 0
  %60 = load ptr, ptr %8, align 8
  %61 = load ptr, ptr %9, align 8
  call void @_Z6dtVaddPfPKfS1_(ptr noundef %59, ptr noundef %60, ptr noundef %61)
  %62 = getelementptr inbounds %class.dtNavMeshQuery, ptr %24, i32 0, i32 0
  %63 = load ptr, ptr %62, align 8
  %64 = getelementptr inbounds [3 x float], ptr %13, i64 0, i64 0
  call void @_ZNK9dtNavMesh11calcTileLocEPKfPiS2_(ptr noundef nonnull align 8 dereferenceable(100) %63, ptr noundef %64, ptr noundef %15, ptr noundef %16)
  %65 = getelementptr inbounds %class.dtNavMeshQuery, ptr %24, i32 0, i32 0
  %66 = load ptr, ptr %65, align 8
  %67 = getelementptr inbounds [3 x float], ptr %14, i64 0, i64 0
  call void @_ZNK9dtNavMesh11calcTileLocEPKfPiS2_(ptr noundef nonnull align 8 dereferenceable(100) %66, ptr noundef %67, ptr noundef %17, ptr noundef %18)
  %68 = load i32, ptr %16, align 4
  store i32 %68, ptr %20, align 4
  br label %69

69:                                               ; preds = %107, %55
  %70 = load i32, ptr %20, align 4
  %71 = load i32, ptr %18, align 4
  %72 = icmp sle i32 %70, %71
  br i1 %72, label %73, label %110

73:                                               ; preds = %69
  %74 = load i32, ptr %15, align 4
  store i32 %74, ptr %21, align 4
  br label %75

75:                                               ; preds = %103, %73
  %76 = load i32, ptr %21, align 4
  %77 = load i32, ptr %17, align 4
  %78 = icmp sle i32 %76, %77
  br i1 %78, label %79, label %106

79:                                               ; preds = %75
  %80 = getelementptr inbounds %class.dtNavMeshQuery, ptr %24, i32 0, i32 0
  %81 = load ptr, ptr %80, align 8
  %82 = load i32, ptr %21, align 4
  %83 = load i32, ptr %20, align 4
  %84 = getelementptr inbounds [32 x ptr], ptr %19, i64 0, i64 0
  %85 = call noundef i32 @_ZNK9dtNavMesh10getTilesAtEiiPPK10dtMeshTilei(ptr noundef nonnull align 8 dereferenceable(100) %81, i32 noundef %82, i32 noundef %83, ptr noundef %84, i32 noundef 32)
  store i32 %85, ptr %22, align 4
  store i32 0, ptr %23, align 4
  br label %86

86:                                               ; preds = %99, %79
  %87 = load i32, ptr %23, align 4
  %88 = load i32, ptr %22, align 4
  %89 = icmp slt i32 %87, %88
  br i1 %89, label %90, label %102

90:                                               ; preds = %86
  %91 = load i32, ptr %23, align 4
  %92 = sext i32 %91 to i64
  %93 = getelementptr inbounds [32 x ptr], ptr %19, i64 0, i64 %92
  %94 = load ptr, ptr %93, align 8
  %95 = getelementptr inbounds [3 x float], ptr %13, i64 0, i64 0
  %96 = getelementptr inbounds [3 x float], ptr %14, i64 0, i64 0
  %97 = load ptr, ptr %10, align 8
  %98 = load ptr, ptr %11, align 8
  call void @_ZNK14dtNavMeshQuery19queryPolygonsInTileEPK10dtMeshTilePKfS4_PK13dtQueryFilterP11dtPolyQuery(ptr noundef nonnull align 8 dereferenceable(104) %24, ptr noundef %94, ptr noundef %95, ptr noundef %96, ptr noundef %97, ptr noundef %98)
  br label %99

99:                                               ; preds = %90
  %100 = load i32, ptr %23, align 4
  %101 = add nsw i32 %100, 1
  store i32 %101, ptr %23, align 4
  br label %86, !llvm.loop !20

102:                                              ; preds = %86
  br label %103

103:                                              ; preds = %102
  %104 = load i32, ptr %21, align 4
  %105 = add nsw i32 %104, 1
  store i32 %105, ptr %21, align 4
  br label %75, !llvm.loop !21

106:                                              ; preds = %75
  br label %107

107:                                              ; preds = %106
  %108 = load i32, ptr %20, align 4
  %109 = add nsw i32 %108, 1
  store i32 %109, ptr %20, align 4
  br label %69, !llvm.loop !22

110:                                              ; preds = %69
  store i32 1073741824, ptr %6, align 4
  br label %111

111:                                              ; preds = %110, %54
  %112 = load i32, ptr %6, align 4
  ret i32 %112
}