; Function Attrs: mustprogress uwtable
define noundef i32 @_ZNK14dtNavMeshQuery13queryPolygonsEPKfS1_PK13dtQueryFilterP11dtPolyQuery(ptr nocapture noundef nonnull readonly align 8 dereferenceable(104) %0, ptr noundef readonly %1, ptr noundef readonly %2, ptr noundef readonly %3, ptr noundef %4) local_unnamed_addr #1 align 2 {
  %6 = alloca [3 x float], align 8
  %7 = alloca [3 x float], align 8
  %8 = alloca i32, align 4
  %9 = alloca i32, align 4
  %10 = alloca i32, align 4
  %11 = alloca i32, align 4
  %12 = alloca [32 x ptr], align 16
  %13 = tail call noundef ptr @_Z21dtAssertFailGetCustomv()
  %14 = icmp ne ptr %13, null
  %15 = load ptr, ptr %0, align 8
  %.not = icmp eq ptr %15, null
  %or.cond41 = select i1 %14, i1 %.not, i1 false
  br i1 %or.cond41, label %16, label %17

16:                                               ; preds = %5
  tail call void %13(ptr noundef nonnull @.str, ptr noundef nonnull @.str.1, i32 noundef 926)
  br label %17

17:                                               ; preds = %16, %5
  %.not38 = icmp eq ptr %1, null
  br i1 %.not38, label %_Z11dtVisfinitePKf.exit.thread, label %18

18:                                               ; preds = %17
  %19 = load float, ptr %1, align 4
  %20 = tail call float @llvm.fabs.f32(float %19)
  %21 = fcmp ueq float %20, 0x7FF0000000000000
  br i1 %21, label %_Z11dtVisfinitePKf.exit.thread, label %22

22:                                               ; preds = %18
  %23 = getelementptr inbounds i8, ptr %1, i64 4
  %24 = load float, ptr %23, align 4
  %25 = tail call float @llvm.fabs.f32(float %24)
  %26 = fcmp ueq float %25, 0x7FF0000000000000
  br i1 %26, label %_Z11dtVisfinitePKf.exit.thread, label %_Z11dtVisfinitePKf.exit

_Z11dtVisfinitePKf.exit:                          ; preds = %22
  %27 = getelementptr inbounds i8, ptr %1, i64 8
  %28 = load float, ptr %27, align 4
  %29 = tail call float @llvm.fabs.f32(float %28)
  %30 = fcmp one float %29, 0x7FF0000000000000
  %31 = icmp ne ptr %2, null
  %or.cond = and i1 %31, %30
  br i1 %or.cond, label %32, label %_Z11dtVisfinitePKf.exit.thread

32:                                               ; preds = %_Z11dtVisfinitePKf.exit
  %33 = load float, ptr %2, align 4
  %34 = tail call float @llvm.fabs.f32(float %33)
  %35 = fcmp ueq float %34, 0x7FF0000000000000
  br i1 %35, label %_Z11dtVisfinitePKf.exit.thread, label %36

36:                                               ; preds = %32
  %37 = getelementptr inbounds i8, ptr %2, i64 4
  %38 = load float, ptr %37, align 4
  %39 = tail call float @llvm.fabs.f32(float %38)
  %40 = fcmp ueq float %39, 0x7FF0000000000000
  br i1 %40, label %_Z11dtVisfinitePKf.exit.thread, label %_Z11dtVisfinitePKf.exit42

_Z11dtVisfinitePKf.exit42:                        ; preds = %36
  %41 = getelementptr inbounds i8, ptr %2, i64 8
  %42 = load float, ptr %41, align 4
  %43 = tail call float @llvm.fabs.f32(float %42)
  %44 = fcmp one float %43, 0x7FF0000000000000
  %45 = icmp ne ptr %3, null
  %or.cond3 = and i1 %45, %44
  %46 = icmp ne ptr %4, null
  %or.cond5 = and i1 %46, %or.cond3
  br i1 %or.cond5, label %47, label %_Z11dtVisfinitePKf.exit.thread

47:                                               ; preds = %_Z11dtVisfinitePKf.exit42
  %48 = insertelement <2 x float> poison, float %19, i64 0
  %49 = insertelement <2 x float> %48, float %24, i64 1
  %50 = insertelement <2 x float> poison, float %33, i64 0
  %51 = insertelement <2 x float> %50, float %38, i64 1
  %52 = fsub <2 x float> %49, %51
  store <2 x float> %52, ptr %6, align 8
  %53 = fsub float %28, %42
  %54 = getelementptr inbounds i8, ptr %6, i64 8
  store float %53, ptr %54, align 8
  %55 = fadd <2 x float> %49, %51
  store <2 x float> %55, ptr %7, align 8
  %56 = fadd float %28, %42
  %57 = getelementptr inbounds i8, ptr %7, i64 8
  store float %56, ptr %57, align 8
  %58 = load ptr, ptr %0, align 8
  call void @_ZNK9dtNavMesh11calcTileLocEPKfPiS2_(ptr noundef nonnull align 8 dereferenceable(100) %58, ptr noundef nonnull %6, ptr noundef nonnull %8, ptr noundef nonnull %9)
  %59 = load ptr, ptr %0, align 8
  call void @_ZNK9dtNavMesh11calcTileLocEPKfPiS2_(ptr noundef nonnull align 8 dereferenceable(100) %59, ptr noundef nonnull %7, ptr noundef nonnull %10, ptr noundef nonnull %11)
  %60 = load i32, ptr %9, align 4
  %61 = load i32, ptr %11, align 4
  %.not3952 = icmp sgt i32 %60, %61
  br i1 %.not3952, label %_Z11dtVisfinitePKf.exit.thread, label %.lr.ph55

.lr.ph55:                                         ; preds = %47
  %62 = load i32, ptr %8, align 4
  %63 = load i32, ptr %10, align 4
  %64 = icmp sgt i32 %62, %63
  br i1 %64, label %_Z11dtVisfinitePKf.exit.thread, label %.lr.ph55.split

.lr.ph55.split:                                   ; preds = %.lr.ph55, %._crit_edge51
  %65 = phi i32 [ %75, %._crit_edge51 ], [ %61, %.lr.ph55 ]
  %66 = phi i32 [ %76, %._crit_edge51 ], [ %63, %.lr.ph55 ]
  %.03253 = phi i32 [ %77, %._crit_edge51 ], [ %60, %.lr.ph55 ]
  %67 = load i32, ptr %8, align 4
  %.not4047 = icmp sgt i32 %67, %66
  br i1 %.not4047, label %._crit_edge51, label %.lr.ph50

.lr.ph50:                                         ; preds = %.lr.ph55.split, %._crit_edge
  %.03148 = phi i32 [ %73, %._crit_edge ], [ %67, %.lr.ph55.split ]
  %68 = load ptr, ptr %0, align 8
  %69 = call noundef i32 @_ZNK9dtNavMesh10getTilesAtEiiPPK10dtMeshTilei(ptr noundef nonnull align 8 dereferenceable(100) %68, i32 noundef %.03148, i32 noundef %.03253, ptr noundef nonnull %12, i32 noundef 32)
  %70 = icmp sgt i32 %69, 0
  br i1 %70, label %.lr.ph.preheader, label %._crit_edge

.lr.ph.preheader:                                 ; preds = %.lr.ph50
  %wide.trip.count = zext nneg i32 %69 to i64
  br label %.lr.ph

.lr.ph:                                           ; preds = %.lr.ph.preheader, %.lr.ph
  %indvars.iv = phi i64 [ 0, %.lr.ph.preheader ], [ %indvars.iv.next, %.lr.ph ]
  %71 = getelementptr inbounds [32 x ptr], ptr %12, i64 0, i64 %indvars.iv
  %72 = load ptr, ptr %71, align 8
  call void @_ZNK14dtNavMeshQuery19queryPolygonsInTileEPK10dtMeshTilePKfS4_PK13dtQueryFilterP11dtPolyQuery(ptr noundef nonnull align 8 dereferenceable(104) %0, ptr noundef %72, ptr noundef nonnull %6, ptr noundef nonnull %7, ptr noundef nonnull %3, ptr noundef nonnull %4)
  %indvars.iv.next = add nuw nsw i64 %indvars.iv, 1
  %exitcond.not = icmp eq i64 %indvars.iv.next, %wide.trip.count
  br i1 %exitcond.not, label %._crit_edge, label %.lr.ph, !llvm.loop !21

._crit_edge:                                      ; preds = %.lr.ph, %.lr.ph50
  %73 = add nsw i32 %.03148, 1
  %74 = load i32, ptr %10, align 4
  %.not40.not = icmp slt i32 %.03148, %74
  br i1 %.not40.not, label %.lr.ph50, label %._crit_edge51.loopexit, !llvm.loop !22

._crit_edge51.loopexit:                           ; preds = %._crit_edge
  %.pre = load i32, ptr %11, align 4
  br label %._crit_edge51

._crit_edge51:                                    ; preds = %._crit_edge51.loopexit, %.lr.ph55.split
  %75 = phi i32 [ %.pre, %._crit_edge51.loopexit ], [ %65, %.lr.ph55.split ]
  %76 = phi i32 [ %74, %._crit_edge51.loopexit ], [ %66, %.lr.ph55.split ]
  %77 = add nsw i32 %.03253, 1
  %.not39.not = icmp slt i32 %.03253, %75
  br i1 %.not39.not, label %.lr.ph55.split, label %_Z11dtVisfinitePKf.exit.thread, !llvm.loop !23

_Z11dtVisfinitePKf.exit.thread:                   ; preds = %._crit_edge51, %.lr.ph55, %47, %32, %36, %18, %22, %17, %_Z11dtVisfinitePKf.exit, %_Z11dtVisfinitePKf.exit42
  %.030 = phi i32 [ -2147483640, %_Z11dtVisfinitePKf.exit42 ], [ -2147483640, %_Z11dtVisfinitePKf.exit ], [ -2147483640, %17 ], [ -2147483640, %22 ], [ -2147483640, %18 ], [ -2147483640, %36 ], [ -2147483640, %32 ], [ 1073741824, %47 ], [ 1073741824, %.lr.ph55 ], [ 1073741824, %._crit_edge51 ]
  ret i32 %.030
}